target datalayout = "e-m:e-p270:32:32-p271:32:32-p272:64:64-i64:64-i128:128-f80:128-n8:16:32:64-S128"
target triple = "x86_64-pc-linux-gnu"

%struct.quic_demux_st = type { ptr, i64, i64, i64, ptr, ptr, ptr, ptr, %struct.ossl_list_st_urxe, %struct.ossl_list_st_urxe, i8 }
%struct.ossl_list_st_urxe = type { ptr, ptr, i64 }

@.str = private unnamed_addr constant [33 x i8] c"../openssl/ssl/quic/quic_demux.c\00", align 1

; Function Attrs: nounwind uwtable
define ptr @ossl_quic_demux_new(ptr noundef %0, i64 noundef %1, ptr noundef %2, ptr noundef %3) #0 {
  %5 = alloca ptr, align 8
  %6 = alloca ptr, align 8
  %7 = alloca i64, align 8
  %8 = alloca ptr, align 8
  %9 = alloca ptr, align 8
  %10 = alloca ptr, align 8
  %11 = alloca i32, align 4
  store ptr %0, ptr %6, align 8, !tbaa !3
  store i64 %1, ptr %7, align 8, !tbaa !8
  store ptr %2, ptr %8, align 8, !tbaa !10
  store ptr %3, ptr %9, align 8, !tbaa !10
  call void @llvm.lifetime.start.p0(i64 8, ptr %10) #7
  %12 = call noalias ptr @CRYPTO_zalloc(i64 noundef 120, ptr noundef @.str, i32 noundef 78)
  store ptr %12, ptr %10, align 8, !tbaa !11
  %13 = load ptr, ptr %10, align 8, !tbaa !11
  %14 = icmp eq ptr %13, null
  br i1 %14, label %15, label %16

15:                                               ; preds = %4
  store ptr null, ptr %5, align 8
  store i32 1, ptr %11, align 4
  br label %48

16:                                               ; preds = %4
  %17 = load ptr, ptr %6, align 8, !tbaa !3
  %18 = load ptr, ptr %10, align 8, !tbaa !11
  %19 = getelementptr inbounds nuw %struct.quic_demux_st, ptr %18, i32 0, i32 0
  store ptr %17, ptr %19, align 8, !tbaa !13
  %20 = load i64, ptr %7, align 8, !tbaa !8
  %21 = load ptr, ptr %10, align 8, !tbaa !11
  %22 = getelementptr inbounds nuw %struct.quic_demux_st, ptr %21, i32 0, i32 1
  store i64 %20, ptr %22, align 8, !tbaa !17
  %23 = load ptr, ptr %10, align 8, !tbaa !11
  %24 = getelementptr inbounds nuw %struct.quic_demux_st, ptr %23, i32 0, i32 2
  store i64 1500, ptr %24, align 8, !tbaa !18
  %25 = load ptr, ptr %8, align 8, !tbaa !10
  %26 = load ptr, ptr %10, align 8, !tbaa !11
  %27 = getelementptr inbounds nuw %struct.quic_demux_st, ptr %26, i32 0, i32 4
  store ptr %25, ptr %27, align 8, !tbaa !19
  %28 = load ptr, ptr %9, align 8, !tbaa !10
  %29 = load ptr, ptr %10, align 8, !tbaa !11
  %30 = getelementptr inbounds nuw %struct.quic_demux_st, ptr %29, i32 0, i32 5
  store ptr %28, ptr %30, align 8, !tbaa !20
  %31 = load ptr, ptr %6, align 8, !tbaa !3
  %32 = icmp ne ptr %31, null
  br i1 %32, label %33, label %46

33:                                               ; preds = %16
  %34 = load ptr, ptr %6, align 8, !tbaa !3
  %35 = call i64 @BIO_ctrl(ptr noundef %34, i32 noundef 82, i64 noundef 0, ptr noundef null)
  %36 = trunc i64 %35 to i32
  %37 = icmp ne i32 %36, 0
  br i1 %37, label %38, label %46

38:                                               ; preds = %33
  %39 = load ptr, ptr %6, align 8, !tbaa !3
  %40 = call i64 @BIO_ctrl(ptr noundef %39, i32 noundef 84, i64 noundef 1, ptr noundef null)
  %41 = trunc i64 %40 to i32
  %42 = icmp ne i32 %41, 0
  br i1 %42, label %43, label %46

43:                                               ; preds = %38
  %44 = load ptr, ptr %10, align 8, !tbaa !11
  %45 = getelementptr inbounds nuw %struct.quic_demux_st, ptr %44, i32 0, i32 10
  store i8 1, ptr %45, align 8, !tbaa !21
  br label %46

46:                                               ; preds = %43, %38, %33, %16
  %47 = load ptr, ptr %10, align 8, !tbaa !11
  store ptr %47, ptr %5, align 8
  store i32 1, ptr %11, align 4
  br label %48

48:                                               ; preds = %46, %15
  call void @llvm.lifetime.end.p0(i64 8, ptr %10) #7
  %49 = load ptr, ptr %5, align 8
  ret ptr %49
}