; Function Attrs: nounwind uwtable
define noalias ptr @ossl_quic_demux_new(ptr noundef %0, i64 noundef %1, ptr noundef %2, ptr noundef %3) local_unnamed_addr #0 {
  %5 = tail call noalias ptr @CRYPTO_zalloc(i64 noundef 120, ptr noundef nonnull @.str, i32 noundef 78) #8
  %6 = icmp eq ptr %5, null
  br i1 %6, label %20, label %7

7:                                                ; preds = %4
  store ptr %0, ptr %5, align 8, !tbaa !3
  %8 = getelementptr inbounds nuw i8, ptr %5, i64 8
  store i64 %1, ptr %8, align 8, !tbaa !12
  %9 = getelementptr inbounds nuw i8, ptr %5, i64 16
  store i64 1500, ptr %9, align 8, !tbaa !13
  %10 = getelementptr inbounds nuw i8, ptr %5, i64 32
  store ptr %2, ptr %10, align 8, !tbaa !14
  %11 = getelementptr inbounds nuw i8, ptr %5, i64 40
  store ptr %3, ptr %11, align 8, !tbaa !15
  %.not = icmp eq ptr %0, null
  br i1 %.not, label %20, label %12

12:                                               ; preds = %7
  %13 = tail call i64 @BIO_ctrl(ptr noundef nonnull %0, i32 noundef 82, i64 noundef 0, ptr noundef null) #8
  %14 = and i64 %13, 4294967295
  %.not17 = icmp eq i64 %14, 0
  br i1 %.not17, label %20, label %15

15:                                               ; preds = %12
  %16 = tail call i64 @BIO_ctrl(ptr noundef nonnull %0, i32 noundef 84, i64 noundef 1, ptr noundef null) #8
  %17 = and i64 %16, 4294967295
  %.not18 = icmp eq i64 %17, 0
  br i1 %.not18, label %20, label %18

18:                                               ; preds = %15
  %19 = getelementptr inbounds nuw i8, ptr %5, i64 112
  store i8 1, ptr %19, align 8, !tbaa !16
  br label %20

20:                                               ; preds = %7, %12, %15, %18, %4
  ret ptr %5
}